; Function Attrs: mustprogress nounwind uwtable
define dso_local void @_ZN4node13GetNodeReportEPN2v87IsolateEPKcS4_NS0_5LocalINS0_5ValueEEERSo(ptr noundef %isolate, ptr noundef %message, ptr noundef %trigger, ptr %error.coerce, ptr noundef nonnull align 8 dereferenceable(8) %out) local_unnamed_addr #3 {
entry:
  %handle_scope.i = alloca %"class.v8::HandleScope", align 8
  %ref.tmp = alloca %"class.std::__cxx11::basic_string", align 8
  %ref.tmp3 = alloca %"class.std::allocator", align 1
  %cmp.not = icmp eq ptr %isolate, null
  br i1 %cmp.not, label %if.end, label %if.then

if.then:                                          ; preds = %entry
  call void @llvm.lifetime.start.p0(i64 24, ptr nonnull %handle_scope.i)
  %call.i = tail call noundef zeroext i1 @_ZN2v87Isolate9InContextEv(ptr noundef nonnull align 1 dereferenceable(1) %isolate) #24
  br i1 %call.i, label %if.end.i, label %_ZN4node11Environment10GetCurrentEPN2v87IsolateE.exit

if.end.i:                                         ; preds = %if.then
  call void @_ZN2v811HandleScopeC1EPNS_7IsolateE(ptr noundef nonnull align 8 dereferenceable(24) %handle_scope.i, ptr noundef nonnull %isolate) #24
  %call3.i = call ptr @_ZN2v87Isolate17GetCurrentContextEv(ptr noundef nonnull align 1 dereferenceable(1) %isolate) #24
  %cmp.i.i.i.i = icmp eq ptr %call3.i, null
  br i1 %cmp.i.i.i.i, label %_ZN4node11Environment10GetCurrentEN2v85LocalINS1_7ContextEEE.exit.i, label %if.end.i.i.i

if.end.i.i.i:                                     ; preds = %if.end.i
  %call5.i.i.i = call noundef i32 @_ZN2v87Context29GetNumberOfEmbedderDataFieldsEv(ptr noundef nonnull align 1 dereferenceable(1) %call3.i) #24
  %cmp.i.i.i = icmp ult i32 %call5.i.i.i, 40
  br i1 %cmp.i.i.i, label %_ZN4node11Environment10GetCurrentEN2v85LocalINS1_7ContextEEE.exit.i, label %_ZN4node18ContextEmbedderTag13IsNodeContextEN2v85LocalINS1_7ContextEEE.exit.i.i

_ZN4node18ContextEmbedderTag13IsNodeContextEN2v85LocalINS1_7ContextEEE.exit.i.i: ; preds = %if.end.i.i.i
  %0 = load i64, ptr %call3.i, align 8
  %sub.i.i.i.i.i = add i64 %0, 47
  %1 = inttoptr i64 %sub.i.i.i.i.i to ptr
  %2 = load i64, ptr %1, align 8
  %sub.i.i38.i.i.i = add i64 %2, 327
  %3 = inttoptr i64 %sub.i.i38.i.i.i to ptr
  %4 = load i64, ptr %3, align 8
  %5 = inttoptr i64 %4 to ptr
  %6 = load ptr, ptr @_ZN4node18ContextEmbedderTag18kNodeContextTagPtrE, align 8
  %cmp12.not.i.i.i = icmp eq ptr %6, %5
  br i1 %cmp12.not.i.i.i, label %if.end.i.i, label %_ZN4node11Environment10GetCurrentEN2v85LocalINS1_7ContextEEE.exit.i

if.end.i.i:                                       ; preds = %_ZN4node18ContextEmbedderTag13IsNodeContextEN2v85LocalINS1_7ContextEEE.exit.i.i
  %sub.i.i20.i.i = add i64 %2, 271
  %7 = inttoptr i64 %sub.i.i20.i.i to ptr
  %8 = load i64, ptr %7, align 8
  %9 = inttoptr i64 %8 to ptr
  br label %_ZN4node11Environment10GetCurrentEN2v85LocalINS1_7ContextEEE.exit.i

_ZN4node11Environment10GetCurrentEN2v85LocalINS1_7ContextEEE.exit.i: ; preds = %if.end.i.i, %_ZN4node18ContextEmbedderTag13IsNodeContextEN2v85LocalINS1_7ContextEEE.exit.i.i, %if.end.i.i.i, %if.end.i
  %retval.0.i.i = phi ptr [ %9, %if.end.i.i ], [ null, %_ZN4node18ContextEmbedderTag13IsNodeContextEN2v85LocalINS1_7ContextEEE.exit.i.i ], [ null, %if.end.i ], [ null, %if.end.i.i.i ]
  call void @_ZN2v811HandleScopeD1Ev(ptr noundef nonnull align 8 dereferenceable(24) %handle_scope.i) #24
  br label %_ZN4node11Environment10GetCurrentEPN2v87IsolateE.exit

_ZN4node11Environment10GetCurrentEPN2v87IsolateE.exit: ; preds = %if.then, %_ZN4node11Environment10GetCurrentEN2v85LocalINS1_7ContextEEE.exit.i
  %retval.0.i = phi ptr [ %retval.0.i.i, %_ZN4node11Environment10GetCurrentEN2v85LocalINS1_7ContextEEE.exit.i ], [ null, %if.then ]
  call void @llvm.lifetime.end.p0(i64 24, ptr nonnull %handle_scope.i)
  br label %if.end

if.end:                                           ; preds = %_ZN4node11Environment10GetCurrentEPN2v87IsolateE.exit, %entry
  %env.0 = phi ptr [ %retval.0.i, %_ZN4node11Environment10GetCurrentEPN2v87IsolateE.exit ], [ null, %entry ]
  call void @_ZNSaIcEC1Ev(ptr noundef nonnull align 1 dereferenceable(1) %ref.tmp3) #24
  %call.i3 = call noundef ptr @_ZNSt7__cxx1112basic_stringIcSt11char_traitsIcESaIcEE13_M_local_dataEv(ptr noundef nonnull align 8 dereferenceable(32) %ref.tmp) #24
  call void @_ZNSt7__cxx1112basic_stringIcSt11char_traitsIcESaIcEE12_Alloc_hiderC1EPcRKS3_(ptr noundef nonnull align 8 dereferenceable(8) %ref.tmp, ptr noundef %call.i3, ptr noundef nonnull align 1 dereferenceable(1) %ref.tmp3) #24
  call void @_ZNSt7__cxx1112basic_stringIcSt11char_traitsIcESaIcEE12_M_constructIPKcEEvT_S8_St20forward_iterator_tag(ptr noundef nonnull align 8 dereferenceable(32) %ref.tmp, ptr noundef nonnull @.str.8, ptr noundef nonnull @.str.8)
  %coerce.val.pi = ptrtoint ptr %error.coerce to i64
  call fastcc void @_ZN4node6reportL15WriteNodeReportEPN2v87IsolateEPNS_11EnvironmentEPKcS7_RKNSt7__cxx1112basic_stringIcSt11char_traitsIcESaIcEEERSoNS1_5LocalINS1_5ValueEEEb(ptr noundef %isolate, ptr noundef %env.0, ptr noundef %message, ptr noundef %trigger, ptr noundef nonnull align 8 dereferenceable(32) %ref.tmp, ptr noundef nonnull align 8 dereferenceable(8) %out, i64 %coerce.val.pi, i1 noundef zeroext false)
  call void @_ZNSt7__cxx1112basic_stringIcSt11char_traitsIcESaIcEED1Ev(ptr noundef nonnull align 8 dereferenceable(32) %ref.tmp) #24
  call void @_ZNSaIcED1Ev(ptr noundef nonnull align 1 dereferenceable(1) %ref.tmp3) #24
  ret void
}